
out:     file format elf32-littleriscv


Disassembly of section .text:

00010054 <main>:
   10054:	fc010113          	addi	sp,sp,-64
   10058:	02812e23          	sw	s0,60(sp)
   1005c:	04010413          	addi	s0,sp,64
   10060:	fe042623          	sw	zero,-20(s0)
   10064:	fe042423          	sw	zero,-24(s0)
   10068:	fe042223          	sw	zero,-28(s0)
   1006c:	fe042023          	sw	zero,-32(s0)
   10070:	fe042783          	lw	a5,-32(s0)
   10074:	00479793          	slli	a5,a5,0x4
   10078:	fcf42e23          	sw	a5,-36(s0)
   1007c:	fec42783          	lw	a5,-20(s0)
   10080:	00579793          	slli	a5,a5,0x5
   10084:	fcf42c23          	sw	a5,-40(s0)
   10088:	fe842783          	lw	a5,-24(s0)
   1008c:	00679793          	slli	a5,a5,0x6
   10090:	fcf42a23          	sw	a5,-44(s0)
   10094:	fe442783          	lw	a5,-28(s0)
   10098:	00779793          	slli	a5,a5,0x7
   1009c:	fcf42823          	sw	a5,-48(s0)
   100a0:	fc042623          	sw	zero,-52(s0)
   100a4:	001f7793          	andi	a5,t5,1
   100a8:	fcf42623          	sw	a5,-52(s0)
   100ac:	fc042423          	sw	zero,-56(s0)
   100b0:	002f7793          	andi	a5,t5,2
   100b4:	fcf42423          	sw	a5,-56(s0)
   100b8:	00100793          	li	a5,1
   100bc:	fcf42223          	sw	a5,-60(s0)
   100c0:	004f7793          	andi	a5,t5,4
   100c4:	fcf42223          	sw	a5,-60(s0)
   100c8:	fcc42783          	lw	a5,-52(s0)
   100cc:	08079263          	bnez	a5,10150 <main+0xfc>
   100d0:	fe042023          	sw	zero,-32(s0)
   100d4:	fc842783          	lw	a5,-56(s0)
   100d8:	02079063          	bnez	a5,100f8 <main+0xa4>
   100dc:	fc442783          	lw	a5,-60(s0)
   100e0:	00078c63          	beqz	a5,100f8 <main+0xa4>
   100e4:	00100793          	li	a5,1
   100e8:	fef42623          	sw	a5,-20(s0)
   100ec:	fe042423          	sw	zero,-24(s0)
   100f0:	fe042223          	sw	zero,-28(s0)
   100f4:	0700006f          	j	10164 <main+0x110>
   100f8:	fc442783          	lw	a5,-60(s0)
   100fc:	02079063          	bnez	a5,1011c <main+0xc8>
   10100:	fc842783          	lw	a5,-56(s0)
   10104:	00078c63          	beqz	a5,1011c <main+0xc8>
   10108:	00100793          	li	a5,1
   1010c:	fef42423          	sw	a5,-24(s0)
   10110:	fe042623          	sw	zero,-20(s0)
   10114:	fe042223          	sw	zero,-28(s0)
   10118:	04c0006f          	j	10164 <main+0x110>
   1011c:	fc442783          	lw	a5,-60(s0)
   10120:	02079063          	bnez	a5,10140 <main+0xec>
   10124:	fc842783          	lw	a5,-56(s0)
   10128:	00079c63          	bnez	a5,10140 <main+0xec>
   1012c:	00100793          	li	a5,1
   10130:	fef42223          	sw	a5,-28(s0)
   10134:	fe042423          	sw	zero,-24(s0)
   10138:	fe042623          	sw	zero,-20(s0)
   1013c:	0280006f          	j	10164 <main+0x110>
   10140:	fe042223          	sw	zero,-28(s0)
   10144:	fe042423          	sw	zero,-24(s0)
   10148:	fe042623          	sw	zero,-20(s0)
   1014c:	0180006f          	j	10164 <main+0x110>
   10150:	00100793          	li	a5,1
   10154:	fef42023          	sw	a5,-32(s0)
   10158:	fe042223          	sw	zero,-28(s0)
   1015c:	fe042423          	sw	zero,-24(s0)
   10160:	fe042623          	sw	zero,-20(s0)
   10164:	fdc42783          	lw	a5,-36(s0)
   10168:	00ff6f33          	or	t5,t5,a5
   1016c:	fd842783          	lw	a5,-40(s0)
   10170:	00ff6f33          	or	t5,t5,a5
   10174:	fd442783          	lw	a5,-44(s0)
   10178:	00ff6f33          	or	t5,t5,a5
   1017c:	fd042783          	lw	a5,-48(s0)
   10180:	00ff6f33          	or	t5,t5,a5
   10184:	00000793          	li	a5,0
   10188:	00078513          	mv	a0,a5
   1018c:	03c12403          	lw	s0,60(sp)
   10190:	04010113          	addi	sp,sp,64
   10194:	00008067          	ret
